ccopy_reg
_reconstructor
p0
(cgoogle.oauth2.credentials
Credentials
p1
c__builtin__
object
p2
Ntp3
Rp4
(dp5
S'_quota_project_id'
p6
NsS'_token_uri'
p7
Vhttps://oauth2.googleapis.com/token
p8
sS'_client_secret'
p9
VPoP91hdZAnhC3TD1VRY493SJ
p10
sS'_id_token'
p11
NsS'token'
p12
Vya29.a0AfH6SMCkGTYEA7NiEbnyQow0drEfwRcqdXtJHRm4T-fI6dEdlx9ZbMnTNUJA7QQYkrZfsNc6xB2gxr55BwgpD28myyw-nuACeGW0jAi4eHwRRFeTq0t_krWidjV2QqZcCXKcDY6oDYlXWGBOqk2jPqph-hj2xcjeVHA
p13
sS'_refresh_token'
p14
V1//0daBe9FGy0GeuCgYIARAAGA0SNwF-L9Irzi8Fgf6D6UQbETyrRq31a72kwdCEsBPj0lZFH8vZhvrUC7wZbzNOSw3gfO9b7V9bW5Y
p15
sS'_scopes'
p16
(lp17
S'https://www.googleapis.com/auth/documents.readonly'
p18
aS'https://www.googleapis.com/auth/drive'
p19
asS'_client_id'
p20
V417035806612-2t3cdlvt197c2fclvdpij42j7p9nouv5.apps.googleusercontent.com
p21
sS'expiry'
p22
cdatetime
datetime
p23
(S'\x07\xe4\x07\x1e\x02\x1d%\x03e\xb5'
p24
tp25
Rp26
sb.